; Function Attrs: mustprogress uwtable
define dso_local void @_ZN14V3OptionParser22addSuggestionCandidateERKNSt7__cxx1112basic_stringIcSt11char_traitsIcESaIcEEE(ptr nocapture noundef nonnull readonly align 8 dereferenceable(8) %0, ptr noundef nonnull align 8 dereferenceable(32) %1) #3 align 2 {
  %3 = load ptr, ptr %0, align 8
  %4 = getelementptr inbounds i8, ptr %3, i64 56
  %5 = getelementptr inbounds i8, ptr %3, i64 64
  %6 = load ptr, ptr %5, align 8
  %7 = load ptr, ptr %4, align 8
  %8 = ptrtoint ptr %6 to i64
  %9 = ptrtoint ptr %7 to i64
  %10 = sub i64 %8, %9
  %11 = icmp ult i64 %10, 320000
  br i1 %11, label %12, label %_ZN11VSpellCheck13pushCandidateERKNSt7__cxx1112basic_stringIcSt11char_traitsIcESaIcEEE.exit

12:                                               ; preds = %2
  %13 = getelementptr inbounds i8, ptr %3, i64 72
  %14 = load ptr, ptr %13, align 8
  %.not.i.i = icmp eq ptr %6, %14
  br i1 %.not.i.i, label %18, label %15

15:                                               ; preds = %12
  tail call void @_ZNSt7__cxx1112basic_stringIcSt11char_traitsIcESaIcEEC1ERKS4_(ptr noundef nonnull align 8 dereferenceable(32) %6, ptr noundef nonnull align 8 dereferenceable(32) %1)
  %16 = load ptr, ptr %5, align 8
  %17 = getelementptr inbounds i8, ptr %16, i64 32
  store ptr %17, ptr %5, align 8
  br label %_ZN11VSpellCheck13pushCandidateERKNSt7__cxx1112basic_stringIcSt11char_traitsIcESaIcEEE.exit

18:                                               ; preds = %12
  tail call void @_ZNSt6vectorINSt7__cxx1112basic_stringIcSt11char_traitsIcESaIcEEESaIS5_EE17_M_realloc_insertIJRKS5_EEEvN9__gnu_cxx17__normal_iteratorIPS5_S7_EEDpOT_(ptr noundef nonnull align 8 dereferenceable(24) %4, ptr %6, ptr noundef nonnull align 8 dereferenceable(32) %1)
  br label %_ZN11VSpellCheck13pushCandidateERKNSt7__cxx1112basic_stringIcSt11char_traitsIcESaIcEEE.exit

_ZN11VSpellCheck13pushCandidateERKNSt7__cxx1112basic_stringIcSt11char_traitsIcESaIcEEE.exit: ; preds = %2, %15, %18
  ret void
}